; Function Attrs: mustprogress nounwind uwtable
define internal fastcc void @_ZN12_GLOBAL__N_112StmtProfiler26VisitOMPTaskgroupDirectiveEPKN5clang21OMPTaskgroupDirectiveE(ptr noundef nonnull align 8 dereferenceable(18) %0, ptr noundef %1) unnamed_addr #0 align 2 {
_ZNK5clang22OMPExecutableDirective7clausesEv.exit:
  %2 = alloca %"class.(anonymous namespace)::OMPClauseProfiler", align 8
  call void @llvm.lifetime.start.p0(i64 8, ptr nonnull %2)
  tail call fastcc void @_ZN12_GLOBAL__N_112StmtProfiler9VisitStmtEPKN5clang4StmtE(ptr noundef nonnull align 8 dereferenceable(18) %0, ptr noundef %1)
  store ptr %0, ptr %2, align 8
  %3 = getelementptr inbounds nuw i8, ptr %1, i64 24
  %4 = load ptr, ptr %3, align 8, !nonnull !35, !noundef !35
  %5 = getelementptr inbounds nuw i8, ptr %4, i64 16
  %6 = load i32, ptr %4, align 8
  %7 = zext i32 %6 to i64
  %8 = getelementptr inbounds nuw ptr, ptr %5, i64 %7
  %.not.i7 = icmp eq i32 %6, 0
  br i1 %.not.i7, label %_ZN12_GLOBAL__N_112StmtProfiler27VisitOMPExecutableDirectiveEPKN5clang22OMPExecutableDirectiveE.exit, label %.lr.ph

.lr.ph:                                           ; preds = %_ZNK5clang22OMPExecutableDirective7clausesEv.exit, %11
  %.0.i8 = phi ptr [ %12, %11 ], [ %5, %_ZNK5clang22OMPExecutableDirective7clausesEv.exit ]
  %9 = load ptr, ptr %.0.i8, align 8
  %.not9.i = icmp eq ptr %9, null
  br i1 %.not9.i, label %11, label %10

10:                                               ; preds = %.lr.ph
  call fastcc void @_ZN5clang20OMPClauseVisitorBaseIN12_GLOBAL__N_117OMPClauseProfilerENS_9const_ptrEvE5VisitEPKNS_9OMPClauseE(ptr noundef nonnull align 1 dereferenceable(1) %2, ptr noundef %9)
  br label %11

11:                                               ; preds = %10, %.lr.ph
  %12 = getelementptr inbounds nuw i8, ptr %.0.i8, i64 8
  %.not.i = icmp eq ptr %12, %8
  br i1 %.not.i, label %_ZN12_GLOBAL__N_112StmtProfiler27VisitOMPExecutableDirectiveEPKN5clang22OMPExecutableDirectiveE.exit.loopexit, label %.lr.ph, !llvm.loop !36

_ZN12_GLOBAL__N_112StmtProfiler27VisitOMPExecutableDirectiveEPKN5clang22OMPExecutableDirectiveE.exit.loopexit: ; preds = %11
  %.pre = load ptr, ptr %3, align 8
  br label %_ZN12_GLOBAL__N_112StmtProfiler27VisitOMPExecutableDirectiveEPKN5clang22OMPExecutableDirectiveE.exit

_ZN12_GLOBAL__N_112StmtProfiler27VisitOMPExecutableDirectiveEPKN5clang22OMPExecutableDirectiveE.exit: ; preds = %_ZN12_GLOBAL__N_112StmtProfiler27VisitOMPExecutableDirectiveEPKN5clang22OMPExecutableDirectiveE.exit.loopexit, %_ZNK5clang22OMPExecutableDirective7clausesEv.exit
  %13 = phi ptr [ %.pre, %_ZN12_GLOBAL__N_112StmtProfiler27VisitOMPExecutableDirectiveEPKN5clang22OMPExecutableDirectiveE.exit.loopexit ], [ %4, %_ZNK5clang22OMPExecutableDirective7clausesEv.exit ]
  call void @llvm.lifetime.end.p0(i64 8, ptr nonnull %2)
  %14 = tail call { ptr, i64 } @_ZN5clang11OMPChildren11getChildrenEv(ptr noundef nonnull align 8 dereferenceable(16) %13) #11
  %15 = extractvalue { ptr, i64 } %14, 0
  %16 = load ptr, ptr %15, align 8
  %.not = icmp eq ptr %16, null
  br i1 %.not, label %18, label %17

17:                                               ; preds = %_ZN12_GLOBAL__N_112StmtProfiler27VisitOMPExecutableDirectiveEPKN5clang22OMPExecutableDirectiveE.exit
  tail call fastcc void @_ZN12_GLOBAL__N_112StmtProfiler9VisitStmtEPKN5clang4StmtE(ptr noundef nonnull align 8 dereferenceable(18) %0, ptr noundef nonnull %16)
  br label %18

18:                                               ; preds = %17, %_ZN12_GLOBAL__N_112StmtProfiler27VisitOMPExecutableDirectiveEPKN5clang22OMPExecutableDirectiveE.exit
  ret void
}